target datalayout = "e-m:e-p270:32:32-p271:32:32-p272:64:64-i64:64-i128:128-f80:128-n8:16:32:64-S128"
target triple = "x86_64-pc-linux-gnu"

; Function Attrs: nounwind uwtable
define zeroext i16 @pmix12_v1_to_v2_datatype(i32 noundef %0) #0 {
  %2 = alloca i32, align 4
  %3 = alloca i16, align 2
  store i32 %0, ptr %2, align 4, !tbaa !20
  call void @llvm.lifetime.start.p0(i64 2, ptr %3) #13
  %4 = load i32, ptr %2, align 4, !tbaa !20
  switch i32 %4, label %11 [
    i32 20, label %5
    i32 22, label %6
    i32 23, label %7
    i32 24, label %7
    i32 25, label %7
    i32 26, label %7
    i32 27, label %7
    i32 28, label %7
    i32 29, label %7
    i32 30, label %7
    i32 31, label %7
  ]

5:                                                ; preds = %1
  store i16 0, ptr %3, align 2, !tbaa !33
  br label %14

6:                                                ; preds = %1
  store i16 44, ptr %3, align 2, !tbaa !33
  br label %14

7:                                                ; preds = %1, %1, %1, %1, %1, %1, %1, %1, %1
  %8 = load i32, ptr %2, align 4, !tbaa !20
  %9 = sub nsw i32 %8, 1
  %10 = trunc i32 %9 to i16
  store i16 %10, ptr %3, align 2, !tbaa !33
  br label %14

11:                                               ; preds = %1
  %12 = load i32, ptr %2, align 4, !tbaa !20
  %13 = trunc i32 %12 to i16
  store i16 %13, ptr %3, align 2, !tbaa !33
  br label %14

14:                                               ; preds = %11, %7, %6, %5
  %15 = load i16, ptr %3, align 2, !tbaa !33
  call void @llvm.lifetime.end.p0(i64 2, ptr %3) #13
  ret i16 %15
}