; Function Attrs: mustprogress nofree norecurse nosync nounwind willreturn memory(none) uwtable
define zeroext i16 @pmix12_v1_to_v2_datatype(i32 noundef %0) local_unnamed_addr #5 {
  %switch.tableidx = add i32 %0, -20
  %2 = icmp ult i32 %switch.tableidx, 12
  br i1 %2, label %switch.hole_check, label %3

3:                                                ; preds = %switch.hole_check, %1
  %4 = trunc i32 %0 to i16
  br label %6

switch.hole_check:                                ; preds = %1
  %switch.maskindex = trunc nuw i32 %switch.tableidx to i16
  %switch.shifted = lshr i16 4093, %switch.maskindex
  %switch.lobit = trunc i16 %switch.shifted to i1
  br i1 %switch.lobit, label %switch.lookup, label %3

switch.lookup:                                    ; preds = %switch.hole_check
  %5 = zext nneg i32 %switch.tableidx to i64
  %switch.gep = getelementptr inbounds nuw [12 x i16], ptr @switch.table.pmix12_bfrop_get_data_type, i64 0, i64 %5
  %switch.load = load i16, ptr %switch.gep, align 2
  br label %6

6:                                                ; preds = %switch.lookup, %3
  %.0 = phi i16 [ %4, %3 ], [ %switch.load, %switch.lookup ]
  ret i16 %.0
}